target datalayout = "e-m:e-p270:32:32-p271:32:32-p272:64:64-i64:64-i128:128-f80:128-n8:16:32:64-S128"
target triple = "x86_64-pc-linux-gnu"

@.str.14 = private unnamed_addr constant [29 x i8] c"../openssl/test/sslapitest.c\00", align 1
@srvaddnewcb = internal global i32 0, align 4
@clntaddnewcb = internal global i32 0, align 4

; Function Attrs: nounwind uwtable
define internal i32 @new_add_cb(ptr noundef %0, i32 noundef %1, i32 noundef %2, ptr noundef %3, ptr noundef %4, ptr noundef %5, i64 noundef %6, ptr noundef %7, ptr noundef %8) #0 {
  %10 = alloca i32, align 4
  %11 = alloca ptr, align 8
  %12 = alloca i32, align 4
  %13 = alloca i32, align 4
  %14 = alloca ptr, align 8
  %15 = alloca ptr, align 8
  %16 = alloca ptr, align 8
  %17 = alloca i64, align 8
  %18 = alloca ptr, align 8
  %19 = alloca ptr, align 8
  %20 = alloca ptr, align 8
  %21 = alloca ptr, align 8
  %22 = alloca i32, align 4
  store ptr %0, ptr %11, align 8, !tbaa !21
  store i32 %1, ptr %12, align 4, !tbaa !13
  store i32 %2, ptr %13, align 4, !tbaa !13
  store ptr %3, ptr %14, align 8, !tbaa !184
  store ptr %4, ptr %15, align 8, !tbaa !186
  store ptr %5, ptr %16, align 8, !tbaa !31
  store i64 %6, ptr %17, align 8, !tbaa !17
  store ptr %7, ptr %18, align 8, !tbaa !80
  store ptr %8, ptr %19, align 8, !tbaa !16
  call void @llvm.lifetime.start.p0(i64 8, ptr %20) #9
  %23 = load ptr, ptr %19, align 8, !tbaa !16
  store ptr %23, ptr %20, align 8, !tbaa !80
  call void @llvm.lifetime.start.p0(i64 8, ptr %21) #9
  %24 = load ptr, ptr %11, align 8, !tbaa !21
  %25 = call i32 @SSL_is_server(ptr noundef %24)
  %26 = icmp ne i32 %25, 0
  br i1 %26, label %27, label %30

27:                                               ; preds = %9
  %28 = load i32, ptr @srvaddnewcb, align 4, !tbaa !13
  %29 = add nsw i32 %28, 1
  store i32 %29, ptr @srvaddnewcb, align 4, !tbaa !13
  br label %33

30:                                               ; preds = %9
  %31 = load i32, ptr @clntaddnewcb, align 4, !tbaa !13
  %32 = add nsw i32 %31, 1
  store i32 %32, ptr @clntaddnewcb, align 4, !tbaa !13
  br label %33

33:                                               ; preds = %30, %27
  %34 = load ptr, ptr %20, align 8, !tbaa !80
  %35 = load i32, ptr %34, align 4, !tbaa !13
  %36 = load ptr, ptr %11, align 8, !tbaa !21
  %37 = call i32 @SSL_is_server(ptr noundef %36)
  %38 = icmp ne i32 %35, %37
  br i1 %38, label %42, label %39

39:                                               ; preds = %33
  %40 = call noalias ptr @CRYPTO_malloc(i64 noundef 1, ptr noundef @.str.14, i32 noundef 6131)
  store ptr %40, ptr %21, align 8, !tbaa !11
  %41 = icmp eq ptr %40, null
  br i1 %41, label %42, label %43

42:                                               ; preds = %39, %33
  store i32 -1, ptr %10, align 4
  store i32 1, ptr %22, align 4
  br label %48

43:                                               ; preds = %39
  %44 = load ptr, ptr %21, align 8, !tbaa !11
  store i8 1, ptr %44, align 1, !tbaa !35
  %45 = load ptr, ptr %21, align 8, !tbaa !11
  %46 = load ptr, ptr %14, align 8, !tbaa !184
  store ptr %45, ptr %46, align 8, !tbaa !11
  %47 = load ptr, ptr %15, align 8, !tbaa !186
  store i64 1, ptr %47, align 8, !tbaa !17
  store i32 1, ptr %10, align 4
  store i32 1, ptr %22, align 4
  br label %48

48:                                               ; preds = %43, %42
  call void @llvm.lifetime.end.p0(i64 8, ptr %21) #9
  call void @llvm.lifetime.end.p0(i64 8, ptr %20) #9
  %49 = load i32, ptr %10, align 4
  ret i32 %49
}