; Function Attrs: nounwind uwtable
define internal range(i32 -1, 2) i32 @new_add_cb(ptr noundef %0, i32 %1, i32 %2, ptr noundef writeonly captures(none) %3, ptr noundef writeonly captures(none) %4, ptr readnone captures(none) %5, i64 %6, ptr readnone captures(none) %7, ptr noundef readonly captures(none) %8) #1 {
  %10 = tail call i32 @SSL_is_server(ptr noundef %0) #24
  %.not = icmp eq i32 %10, 0
  %clntaddnewcb.srvaddnewcb = select i1 %.not, ptr @clntaddnewcb, ptr @srvaddnewcb
  %11 = load i32, ptr %clntaddnewcb.srvaddnewcb, align 4, !tbaa !14
  %12 = add nsw i32 %11, 1
  store i32 %12, ptr %clntaddnewcb.srvaddnewcb, align 4, !tbaa !14
  %13 = load i32, ptr %8, align 4, !tbaa !14
  %14 = tail call i32 @SSL_is_server(ptr noundef %0) #24
  %.not9 = icmp eq i32 %13, %14
  br i1 %.not9, label %15, label %19

15:                                               ; preds = %9
  %16 = tail call noalias ptr @CRYPTO_malloc(i64 noundef 1, ptr noundef nonnull @.str.14, i32 noundef 6131) #24
  %17 = icmp eq ptr %16, null
  br i1 %17, label %19, label %18

18:                                               ; preds = %15
  store i8 1, ptr %16, align 1, !tbaa !27
  store ptr %16, ptr %3, align 8, !tbaa !11
  store i64 1, ptr %4, align 8, !tbaa !17
  br label %19

19:                                               ; preds = %9, %15, %18
  %.0 = phi i32 [ 1, %18 ], [ -1, %15 ], [ -1, %9 ]
  ret i32 %.0
}